target datalayout = "e-m:e-p270:32:32-p271:32:32-p272:64:64-i64:64-i128:128-f80:128-n8:16:32:64-S128"
target triple = "x86_64-pc-linux-gnu"

%struct.__sigset_t = type { [16 x i64] }
%struct.PgArchData = type { i32, %struct.pg_atomic_uint32 }
%struct.pg_atomic_uint32 = type { i32 }
%struct.arch_files_state = type { ptr, i32, [64 x ptr], [64 x [41 x i8]] }

@PgArch = internal global ptr null, align 8
@MyBackendType = external global i32, align 4
@UnBlockSig = external global %struct.__sigset_t, align 8
@MyProcNumber = external global i32, align 4
@arch_files = internal global ptr null, align 8
@TopMemoryContext = external global ptr, align 8
@.str.2 = private unnamed_addr constant [9 x i8] c"archiver\00", align 1
@archive_context = internal global ptr null, align 8

; Function Attrs: noreturn nounwind uwtable
define dso_local void @PgArchiverMain(ptr noundef %0, i64 noundef %1) #6 {
  %3 = alloca ptr, align 8
  %4 = alloca i64, align 8
  %5 = alloca i32, align 4
  store ptr %0, ptr %3, align 8
  store i64 %1, ptr %4, align 8
  store i32 9, ptr @MyBackendType, align 4
  call void @AuxiliaryProcessMainCommon()
  call void @pqsignal_be(i32 noundef 1, ptr noundef @SignalHandlerForConfigReload)
  call void @pqsignal_be(i32 noundef 2, ptr noundef inttoptr (i64 1 to ptr))
  call void @pqsignal_be(i32 noundef 15, ptr noundef @SignalHandlerForShutdownRequest)
  call void @pqsignal_be(i32 noundef 14, ptr noundef inttoptr (i64 1 to ptr))
  call void @pqsignal_be(i32 noundef 13, ptr noundef inttoptr (i64 1 to ptr))
  call void @pqsignal_be(i32 noundef 10, ptr noundef @procsignal_sigusr1_handler)
  call void @pqsignal_be(i32 noundef 12, ptr noundef @pgarch_waken_stop)
  call void @pqsignal_be(i32 noundef 17, ptr noundef null)
  %6 = call i32 @sigprocmask(i32 noundef 2, ptr noundef @UnBlockSig, ptr noundef null) #14
  call void @on_shmem_exit(ptr noundef @pgarch_die, i64 noundef 0)
  %7 = load i32, ptr @MyProcNumber, align 4
  %8 = load ptr, ptr @PgArch, align 8
  %9 = getelementptr inbounds nuw %struct.PgArchData, ptr %8, i32 0, i32 0
  store i32 %7, ptr %9, align 4
  %10 = call ptr @palloc(i64 noundef 3152)
  store ptr %10, ptr @arch_files, align 8
  %11 = load ptr, ptr @arch_files, align 8
  %12 = getelementptr inbounds nuw %struct.arch_files_state, ptr %11, i32 0, i32 1
  store i32 0, ptr %12, align 8
  %13 = call ptr @binaryheap_allocate(i32 noundef 64, ptr noundef @ready_file_comparator, ptr noundef null)
  %14 = load ptr, ptr @arch_files, align 8
  %15 = getelementptr inbounds nuw %struct.arch_files_state, ptr %14, i32 0, i32 0
  store ptr %13, ptr %15, align 8
  br label %16

16:                                               ; preds = %2
  br label %17

17:                                               ; preds = %16
  store i32 1, ptr %5, align 4
  %18 = load ptr, ptr @TopMemoryContext, align 8
  %19 = call ptr @AllocSetContextCreateInternal(ptr noundef %18, ptr noundef @.str.2, i64 noundef 0, i64 noundef 8192, i64 noundef 8388608)
  store ptr %19, ptr @archive_context, align 8
  call void @LoadArchiveLibrary()
  call void @pgarch_MainLoop()
  call void @proc_exit(i32 noundef 0) #15
  unreachable
}