; Function Attrs: noreturn nounwind uwtable
define dso_local void @PgArchiverMain(ptr noundef readnone captures(none) %0, i64 noundef %1) local_unnamed_addr #5 {
  store i32 9, ptr @MyBackendType, align 4
  tail call void @AuxiliaryProcessMainCommon() #19
  tail call void @pqsignal_be(i32 noundef 1, ptr noundef nonnull @SignalHandlerForConfigReload) #19
  tail call void @pqsignal_be(i32 noundef 2, ptr noundef nonnull inttoptr (i64 1 to ptr)) #19
  tail call void @pqsignal_be(i32 noundef 15, ptr noundef nonnull @SignalHandlerForShutdownRequest) #19
  tail call void @pqsignal_be(i32 noundef 14, ptr noundef nonnull inttoptr (i64 1 to ptr)) #19
  tail call void @pqsignal_be(i32 noundef 13, ptr noundef nonnull inttoptr (i64 1 to ptr)) #19
  tail call void @pqsignal_be(i32 noundef 10, ptr noundef nonnull @procsignal_sigusr1_handler) #19
  tail call void @pqsignal_be(i32 noundef 12, ptr noundef nonnull @pgarch_waken_stop) #19
  tail call void @pqsignal_be(i32 noundef 17, ptr noundef null) #19
  %3 = tail call i32 @sigprocmask(i32 noundef 2, ptr noundef nonnull @UnBlockSig, ptr noundef null) #19
  tail call void @on_shmem_exit(ptr noundef nonnull @pgarch_die, i64 noundef 0) #19
  %4 = load i32, ptr @MyProcNumber, align 4
  %5 = load ptr, ptr @PgArch, align 8
  store i32 %4, ptr %5, align 4
  %6 = tail call ptr @palloc(i64 noundef 3152) #19
  store ptr %6, ptr @arch_files, align 8
  %7 = getelementptr inbounds nuw i8, ptr %6, i64 8
  store i32 0, ptr %7, align 8
  %8 = tail call ptr @binaryheap_allocate(i32 noundef 64, ptr noundef nonnull @ready_file_comparator, ptr noundef null) #19
  %9 = load ptr, ptr @arch_files, align 8
  store ptr %8, ptr %9, align 8
  %10 = load ptr, ptr @TopMemoryContext, align 8
  %11 = tail call ptr @AllocSetContextCreateInternal(ptr noundef %10, ptr noundef nonnull @.str.2, i64 noundef 0, i64 noundef 8192, i64 noundef 8388608) #19
  store ptr %11, ptr @archive_context, align 8
  tail call fastcc void @LoadArchiveLibrary()
  tail call fastcc void @pgarch_MainLoop()
  tail call void @proc_exit(i32 noundef 0) #20
  unreachable
}